target datalayout = "e-m:e-p270:32:32-p271:32:32-p272:64:64-i64:64-i128:128-f80:128-n8:16:32:64-S128"
target triple = "x86_64-pc-linux-gnu"

%struct.FxuDataStruct = type { i32, i32, i32, i32, i32, i32, i32, i32, i32, i32, i32, i32, ptr, ptr, ptr, ptr, ptr, i32, i32 }
%struct.Vec_Int_t_ = type { i32, i32, ptr }
%struct.Vec_Ptr_t_ = type { i32, i32, ptr }

; Function Attrs: inlinehint nounwind uwtable
define internal void @Vec_PtrFree(ptr noundef %0) #2 {
  %2 = alloca ptr, align 8
  store ptr %0, ptr %2, align 8, !tbaa !71
  %3 = load ptr, ptr %2, align 8, !tbaa !71
  %4 = getelementptr inbounds nuw %struct.Vec_Ptr_t_, ptr %3, i32 0, i32 2
  %5 = load ptr, ptr %4, align 8, !tbaa !55
  %6 = icmp ne ptr %5, null
  br i1 %6, label %7, label %13

7:                                                ; preds = %1
  %8 = load ptr, ptr %2, align 8, !tbaa !71
  %9 = getelementptr inbounds nuw %struct.Vec_Ptr_t_, ptr %8, i32 0, i32 2
  %10 = load ptr, ptr %9, align 8, !tbaa !55
  call void @free(ptr noundef %10) #8
  %11 = load ptr, ptr %2, align 8, !tbaa !71
  %12 = getelementptr inbounds nuw %struct.Vec_Ptr_t_, ptr %11, i32 0, i32 2
  store ptr null, ptr %12, align 8, !tbaa !55
  br label %14

13:                                               ; preds = %1
  br label %14

14:                                               ; preds = %13, %7
  %15 = load ptr, ptr %2, align 8, !tbaa !71
  %16 = icmp ne ptr %15, null
  br i1 %16, label %17, label %19

17:                                               ; preds = %14
  %18 = load ptr, ptr %2, align 8, !tbaa !71
  call void @free(ptr noundef %18) #8
  store ptr null, ptr %2, align 8, !tbaa !71
  br label %20

19:                                               ; preds = %14
  br label %20

20:                                               ; preds = %19, %17
  ret void
}

; Function Attrs: inlinehint nounwind uwtable
define internal void @Vec_IntFree(ptr noundef %0) #2 {
  %2 = alloca ptr, align 8
  store ptr %0, ptr %2, align 8, !tbaa !63
  %3 = load ptr, ptr %2, align 8, !tbaa !63
  %4 = getelementptr inbounds nuw %struct.Vec_Int_t_, ptr %3, i32 0, i32 2
  %5 = load ptr, ptr %4, align 8, !tbaa !65
  %6 = icmp ne ptr %5, null
  br i1 %6, label %7, label %13

7:                                                ; preds = %1
  %8 = load ptr, ptr %2, align 8, !tbaa !63
  %9 = getelementptr inbounds nuw %struct.Vec_Int_t_, ptr %8, i32 0, i32 2
  %10 = load ptr, ptr %9, align 8, !tbaa !65
  call void @free(ptr noundef %10) #8
  %11 = load ptr, ptr %2, align 8, !tbaa !63
  %12 = getelementptr inbounds nuw %struct.Vec_Int_t_, ptr %11, i32 0, i32 2
  store ptr null, ptr %12, align 8, !tbaa !65
  br label %14

13:                                               ; preds = %1
  br label %14

14:                                               ; preds = %13, %7
  %15 = load ptr, ptr %2, align 8, !tbaa !63
  %16 = icmp ne ptr %15, null
  br i1 %16, label %17, label %19

17:                                               ; preds = %14
  %18 = load ptr, ptr %2, align 8, !tbaa !63
  call void @free(ptr noundef %18) #8
  store ptr null, ptr %2, align 8, !tbaa !63
  br label %20

19:                                               ; preds = %14
  br label %20

20:                                               ; preds = %19, %17
  ret void
}

; Function Attrs: nounwind uwtable
define void @Abc_NtkFxuFreeInfo(ptr noundef %0) #0 {
  %2 = alloca ptr, align 8
  %3 = alloca i32, align 4
  store ptr %0, ptr %2, align 8, !tbaa !3
  call void @llvm.lifetime.start.p0(i64 4, ptr %3) #8
  %4 = load ptr, ptr %2, align 8, !tbaa !3
  %5 = getelementptr inbounds nuw %struct.FxuDataStruct, ptr %4, i32 0, i32 15
  %6 = load ptr, ptr %5, align 8, !tbaa !53
  %7 = icmp ne ptr %6, null
  br i1 %7, label %8, label %43

8:                                                ; preds = %1
  store i32 0, ptr %3, align 4, !tbaa !40
  br label %9

9:                                                ; preds = %39, %8
  %10 = load i32, ptr %3, align 4, !tbaa !40
  %11 = load ptr, ptr %2, align 8, !tbaa !3
  %12 = getelementptr inbounds nuw %struct.FxuDataStruct, ptr %11, i32 0, i32 15
  %13 = load ptr, ptr %12, align 8, !tbaa !53
  %14 = getelementptr inbounds nuw %struct.Vec_Ptr_t_, ptr %13, i32 0, i32 1
  %15 = load i32, ptr %14, align 4, !tbaa !60
  %16 = icmp slt i32 %10, %15
  br i1 %16, label %17, label %42

17:                                               ; preds = %9
  %18 = load ptr, ptr %2, align 8, !tbaa !3
  %19 = getelementptr inbounds nuw %struct.FxuDataStruct, ptr %18, i32 0, i32 15
  %20 = load ptr, ptr %19, align 8, !tbaa !53
  %21 = getelementptr inbounds nuw %struct.Vec_Ptr_t_, ptr %20, i32 0, i32 2
  %22 = load ptr, ptr %21, align 8, !tbaa !55
  %23 = load i32, ptr %3, align 4, !tbaa !40
  %24 = sext i32 %23 to i64
  %25 = getelementptr inbounds ptr, ptr %22, i64 %24
  %26 = load ptr, ptr %25, align 8, !tbaa !57
  %27 = icmp ne ptr %26, null
  br i1 %27, label %28, label %38

28:                                               ; preds = %17
  %29 = load ptr, ptr %2, align 8, !tbaa !3
  %30 = getelementptr inbounds nuw %struct.FxuDataStruct, ptr %29, i32 0, i32 15
  %31 = load ptr, ptr %30, align 8, !tbaa !53
  %32 = getelementptr inbounds nuw %struct.Vec_Ptr_t_, ptr %31, i32 0, i32 2
  %33 = load ptr, ptr %32, align 8, !tbaa !55
  %34 = load i32, ptr %3, align 4, !tbaa !40
  %35 = sext i32 %34 to i64
  %36 = getelementptr inbounds ptr, ptr %33, i64 %35
  %37 = load ptr, ptr %36, align 8, !tbaa !57
  call void @Vec_IntFree(ptr noundef %37)
  br label %38

38:                                               ; preds = %28, %17
  br label %39

39:                                               ; preds = %38
  %40 = load i32, ptr %3, align 4, !tbaa !40
  %41 = add nsw i32 %40, 1
  store i32 %41, ptr %3, align 4, !tbaa !40
  br label %9, !llvm.loop !70

42:                                               ; preds = %9
  br label %43

43:                                               ; preds = %42, %1
  %44 = load ptr, ptr %2, align 8, !tbaa !3
  %45 = getelementptr inbounds nuw %struct.FxuDataStruct, ptr %44, i32 0, i32 12
  %46 = load ptr, ptr %45, align 8, !tbaa !50
  %47 = icmp ne ptr %46, null
  br i1 %47, label %48, label %52

48:                                               ; preds = %43
  %49 = load ptr, ptr %2, align 8, !tbaa !3
  %50 = getelementptr inbounds nuw %struct.FxuDataStruct, ptr %49, i32 0, i32 12
  %51 = load ptr, ptr %50, align 8, !tbaa !50
  call void @Vec_PtrFree(ptr noundef %51)
  br label %52

52:                                               ; preds = %48, %43
  %53 = load ptr, ptr %2, align 8, !tbaa !3
  %54 = getelementptr inbounds nuw %struct.FxuDataStruct, ptr %53, i32 0, i32 14
  %55 = load ptr, ptr %54, align 8, !tbaa !52
  %56 = icmp ne ptr %55, null
  br i1 %56, label %57, label %61

57:                                               ; preds = %52
  %58 = load ptr, ptr %2, align 8, !tbaa !3
  %59 = getelementptr inbounds nuw %struct.FxuDataStruct, ptr %58, i32 0, i32 14
  %60 = load ptr, ptr %59, align 8, !tbaa !52
  call void @Vec_PtrFree(ptr noundef %60)
  br label %61

61:                                               ; preds = %57, %52
  %62 = load ptr, ptr %2, align 8, !tbaa !3
  %63 = getelementptr inbounds nuw %struct.FxuDataStruct, ptr %62, i32 0, i32 13
  %64 = load ptr, ptr %63, align 8, !tbaa !51
  %65 = icmp ne ptr %64, null
  br i1 %65, label %66, label %70

66:                                               ; preds = %61
  %67 = load ptr, ptr %2, align 8, !tbaa !3
  %68 = getelementptr inbounds nuw %struct.FxuDataStruct, ptr %67, i32 0, i32 13
  %69 = load ptr, ptr %68, align 8, !tbaa !51
  call void @Vec_PtrFree(ptr noundef %69)
  br label %70

70:                                               ; preds = %66, %61
  %71 = load ptr, ptr %2, align 8, !tbaa !3
  %72 = getelementptr inbounds nuw %struct.FxuDataStruct, ptr %71, i32 0, i32 15
  %73 = load ptr, ptr %72, align 8, !tbaa !53
  %74 = icmp ne ptr %73, null
  br i1 %74, label %75, label %79

75:                                               ; preds = %70
  %76 = load ptr, ptr %2, align 8, !tbaa !3
  %77 = getelementptr inbounds nuw %struct.FxuDataStruct, ptr %76, i32 0, i32 15
  %78 = load ptr, ptr %77, align 8, !tbaa !53
  call void @Vec_PtrFree(ptr noundef %78)
  br label %79

79:                                               ; preds = %75, %70
  call void @llvm.lifetime.end.p0(i64 4, ptr %3) #8
  ret void
}