; Function Attrs: nounwind uwtable
define void @Abc_NtkFxuFreeInfo(ptr noundef readonly captures(none) %0) local_unnamed_addr #2 {
  %2 = getelementptr inbounds nuw i8, ptr %0, i64 72
  %3 = load ptr, ptr %2, align 8, !tbaa !53
  %.not = icmp eq ptr %3, null
  br i1 %.not, label %.loopexit, label %.preheader

.preheader:                                       ; preds = %1
  %4 = getelementptr inbounds nuw i8, ptr %3, i64 4
  %5 = load i32, ptr %4, align 4, !tbaa !34
  %6 = icmp sgt i32 %5, 0
  br i1 %6, label %.lr.ph, label %.loopexit

.lr.ph:                                           ; preds = %.preheader, %16
  %7 = phi ptr [ %17, %16 ], [ %3, %.preheader ]
  %indvars.iv = phi i64 [ %indvars.iv.next, %16 ], [ 0, %.preheader ]
  %8 = getelementptr inbounds nuw i8, ptr %7, i64 8
  %9 = load ptr, ptr %8, align 8, !tbaa !36
  %10 = getelementptr inbounds nuw ptr, ptr %9, i64 %indvars.iv
  %11 = load ptr, ptr %10, align 8, !tbaa !37
  %.not24 = icmp eq ptr %11, null
  br i1 %.not24, label %16, label %12

12:                                               ; preds = %.lr.ph
  %13 = getelementptr inbounds nuw i8, ptr %11, i64 8
  %14 = load ptr, ptr %13, align 8, !tbaa !62
  %.not.i = icmp eq ptr %14, null
  br i1 %.not.i, label %Vec_IntFree.exit, label %15

15:                                               ; preds = %12
  tail call void @free(ptr noundef nonnull %14) #9
  br label %Vec_IntFree.exit

Vec_IntFree.exit:                                 ; preds = %12, %15
  tail call void @free(ptr noundef nonnull %11) #9
  %.pre = load ptr, ptr %2, align 8, !tbaa !53
  br label %16

16:                                               ; preds = %.lr.ph, %Vec_IntFree.exit
  %17 = phi ptr [ %7, %.lr.ph ], [ %.pre, %Vec_IntFree.exit ]
  %indvars.iv.next = add nuw nsw i64 %indvars.iv, 1
  %18 = getelementptr inbounds nuw i8, ptr %17, i64 4
  %19 = load i32, ptr %18, align 4, !tbaa !34
  %20 = sext i32 %19 to i64
  %21 = icmp slt i64 %indvars.iv.next, %20
  br i1 %21, label %.lr.ph, label %.loopexit, !llvm.loop !67

.loopexit:                                        ; preds = %16, %.preheader, %1
  %22 = getelementptr inbounds nuw i8, ptr %0, i64 48
  %23 = load ptr, ptr %22, align 8, !tbaa !50
  %.not20 = icmp eq ptr %23, null
  br i1 %.not20, label %28, label %24

24:                                               ; preds = %.loopexit
  %25 = getelementptr inbounds nuw i8, ptr %23, i64 8
  %26 = load ptr, ptr %25, align 8, !tbaa !36
  %.not.i25 = icmp eq ptr %26, null
  br i1 %.not.i25, label %Vec_PtrFree.exit, label %27

27:                                               ; preds = %24
  tail call void @free(ptr noundef nonnull %26) #9
  br label %Vec_PtrFree.exit

Vec_PtrFree.exit:                                 ; preds = %24, %27
  tail call void @free(ptr noundef nonnull %23) #9
  br label %28

28:                                               ; preds = %Vec_PtrFree.exit, %.loopexit
  %29 = getelementptr inbounds nuw i8, ptr %0, i64 64
  %30 = load ptr, ptr %29, align 8, !tbaa !52
  %.not21 = icmp eq ptr %30, null
  br i1 %.not21, label %35, label %31

31:                                               ; preds = %28
  %32 = getelementptr inbounds nuw i8, ptr %30, i64 8
  %33 = load ptr, ptr %32, align 8, !tbaa !36
  %.not.i26 = icmp eq ptr %33, null
  br i1 %.not.i26, label %Vec_PtrFree.exit27, label %34

34:                                               ; preds = %31
  tail call void @free(ptr noundef nonnull %33) #9
  br label %Vec_PtrFree.exit27

Vec_PtrFree.exit27:                               ; preds = %31, %34
  tail call void @free(ptr noundef nonnull %30) #9
  br label %35

35:                                               ; preds = %Vec_PtrFree.exit27, %28
  %36 = getelementptr inbounds nuw i8, ptr %0, i64 56
  %37 = load ptr, ptr %36, align 8, !tbaa !51
  %.not22 = icmp eq ptr %37, null
  br i1 %.not22, label %42, label %38

38:                                               ; preds = %35
  %39 = getelementptr inbounds nuw i8, ptr %37, i64 8
  %40 = load ptr, ptr %39, align 8, !tbaa !36
  %.not.i28 = icmp eq ptr %40, null
  br i1 %.not.i28, label %Vec_PtrFree.exit29, label %41

41:                                               ; preds = %38
  tail call void @free(ptr noundef nonnull %40) #9
  br label %Vec_PtrFree.exit29

Vec_PtrFree.exit29:                               ; preds = %38, %41
  tail call void @free(ptr noundef nonnull %37) #9
  br label %42

42:                                               ; preds = %Vec_PtrFree.exit29, %35
  %43 = load ptr, ptr %2, align 8, !tbaa !53
  %.not23 = icmp eq ptr %43, null
  br i1 %.not23, label %48, label %44

44:                                               ; preds = %42
  %45 = getelementptr inbounds nuw i8, ptr %43, i64 8
  %46 = load ptr, ptr %45, align 8, !tbaa !36
  %.not.i30 = icmp eq ptr %46, null
  br i1 %.not.i30, label %Vec_PtrFree.exit31, label %47

47:                                               ; preds = %44
  tail call void @free(ptr noundef nonnull %46) #9
  br label %Vec_PtrFree.exit31

Vec_PtrFree.exit31:                               ; preds = %44, %47
  tail call void @free(ptr noundef nonnull %43) #9
  br label %48

48:                                               ; preds = %Vec_PtrFree.exit31, %42
  ret void
}